; Function Attrs: nounwind uwtable
define internal i32 @t1_hints_close(ptr nocapture noundef %0, i32 noundef %1) #0 {
  %3 = getelementptr inbounds i8, ptr %0, i64 8
  %4 = load i32, ptr %3, align 8
  %.not.i = icmp eq i32 %4, 0
  br i1 %.not.i, label %5, label %ps_hints_close.exit

5:                                                ; preds = %2
  %6 = load ptr, ptr %0, align 8
  %7 = getelementptr inbounds i8, ptr %0, i64 24
  %8 = tail call fastcc i32 @ps_dimension_end(ptr noundef nonnull %7, i32 noundef %1, ptr noundef %6)
  %.not13.i = icmp eq i32 %8, 0
  br i1 %.not13.i, label %9, label %ps_hints_close.exit

9:                                                ; preds = %5
  %10 = getelementptr inbounds i8, ptr %0, i64 72
  %11 = tail call fastcc i32 @ps_dimension_end(ptr noundef nonnull %10, i32 noundef %1, ptr noundef %6)
  br label %ps_hints_close.exit

ps_hints_close.exit:                              ; preds = %2, %5, %9
  %.0.i = phi i32 [ %4, %2 ], [ %8, %5 ], [ %11, %9 ]
  ret i32 %.0.i
}